; Function Attrs: nounwind uwtable
define ptr @l_Lean_Compiler_LCNF_CollectLevelParams_visitParams(ptr noundef readonly captures(none) %0, ptr noundef %1) local_unnamed_addr #1 {
lean_nat_lt.exit:
  %2 = getelementptr i8, ptr %0, i64 8
  %.val = load i64, ptr %2, align 8, !tbaa !12
  %.mask = and i64 %.val, 9223372036854775807
  %.not = icmp eq i64 %.mask, 0
  br i1 %.not, label %lean_dec.exit19, label %lean_dec.exit

lean_dec.exit:                                    ; preds = %lean_nat_lt.exit
  %3 = tail call ptr @l_Array_foldlMUnsafe_fold___at_Lean_Compiler_LCNF_CollectLevelParams_visitParams___spec__1(ptr noundef nonnull %0, i64 noundef 0, i64 noundef %.mask, ptr noundef %1)
  br label %lean_dec.exit19

lean_dec.exit19:                                  ; preds = %lean_nat_lt.exit, %lean_dec.exit
  %.0 = phi ptr [ %3, %lean_dec.exit ], [ %1, %lean_nat_lt.exit ]
  ret ptr %.0
}